target datalayout = "e-m:e-p270:32:32-p271:32:32-p272:64:64-i64:64-i128:128-f80:128-n8:16:32:64-S128"
target triple = "x86_64-pc-linux-gnu"

%class.PeriodicTask = type { ptr, i32, i32 }

@_ZTV12PeriodicTask = hidden unnamed_addr constant { [5 x ptr] } { [5 x ptr] [ptr null, ptr null, ptr @_ZN12PeriodicTaskD1Ev, ptr @_ZN12PeriodicTaskD0Ev, ptr @__cxa_pure_virtual] }, align 8

; Function Attrs: mustprogress nounwind uwtable
define hidden void @_ZN12PeriodicTaskC2Em(ptr noundef nonnull align 8 dereferenceable(16) %0, i64 noundef %1) unnamed_addr #1 align 2 {
  %3 = alloca ptr, align 8
  %4 = alloca i64, align 8
  store ptr %0, ptr %3, align 8
  store i64 %1, ptr %4, align 8
  %5 = load ptr, ptr %3, align 8
  store ptr getelementptr inbounds inrange(-16, 24) ({ [5 x ptr] }, ptr @_ZTV12PeriodicTask, i32 0, i32 0, i32 2), ptr %5, align 8
  %6 = getelementptr inbounds %class.PeriodicTask, ptr %5, i32 0, i32 1
  store i32 0, ptr %6, align 8
  %7 = getelementptr inbounds %class.PeriodicTask, ptr %5, i32 0, i32 2
  %8 = load i64, ptr %4, align 8
  %9 = trunc i64 %8 to i32
  store i32 %9, ptr %7, align 4
  ret void
}