; Function Attrs: mustprogress nofree norecurse nosync nounwind willreturn memory(argmem: write) uwtable
define hidden void @_ZN12PeriodicTaskC2Em(ptr nocapture noundef nonnull writeonly align 8 dereferenceable(16) %0, i64 noundef %1) unnamed_addr #2 align 2 {
  store ptr getelementptr inbounds inrange(-16, 24) (i8, ptr @_ZTV12PeriodicTask, i64 16), ptr %0, align 8
  %3 = getelementptr inbounds i8, ptr %0, i64 8
  store i32 0, ptr %3, align 8
  %4 = getelementptr inbounds i8, ptr %0, i64 12
  %5 = trunc i64 %1 to i32
  store i32 %5, ptr %4, align 4
  ret void
}